; Function Attrs: nounwind uwtable
define i32 @Acb_ObjLabelTfo(ptr noundef captures(none) %0, i32 noundef %1, i32 noundef %2, i32 noundef %3, i32 noundef %4) local_unnamed_addr #0 {
  %6 = getelementptr i8, ptr %0, i64 260
  %.val.i = load i32, ptr %6, align 4, !tbaa !15
  %7 = icmp slt i32 %.val.i, 1
  br i1 %7, label %11, label %Acb_NtkIncTravId.exit15.thread29

Acb_NtkIncTravId.exit15.thread29:                 ; preds = %5
  %8 = getelementptr inbounds nuw i8, ptr %0, i64 96
  %9 = load i32, ptr %8, align 8, !tbaa !73
  %10 = add nsw i32 %9, 2
  br label %Acb_NtkIncTravId.exit24

11:                                               ; preds = %5
  %12 = getelementptr inbounds nuw i8, ptr %0, i64 256
  %13 = getelementptr inbounds nuw i8, ptr %0, i64 112
  %.val.i.i = load i32, ptr %13, align 8, !tbaa !12
  %14 = load i32, ptr %12, align 8, !tbaa !31
  %.not.i.i.i.i = icmp slt i32 %14, %.val.i.i
  br i1 %.not.i.i.i.i, label %15, label %Vec_IntGrow.exit.i.i.i

15:                                               ; preds = %11
  %16 = getelementptr inbounds nuw i8, ptr %0, i64 264
  %17 = load ptr, ptr %16, align 8, !tbaa !18
  %.not9.i.i.i.i = icmp eq ptr %17, null
  %18 = sext i32 %.val.i.i to i64
  %19 = shl nsw i64 %18, 2
  br i1 %.not9.i.i.i.i, label %22, label %20

20:                                               ; preds = %15
  %21 = tail call ptr @realloc(ptr noundef nonnull %17, i64 noundef %19) #23
  br label %24

22:                                               ; preds = %15
  %23 = tail call noalias ptr @malloc(i64 noundef %19) #24
  br label %24

24:                                               ; preds = %22, %20
  %25 = phi ptr [ %21, %20 ], [ %23, %22 ]
  store ptr %25, ptr %16, align 8, !tbaa !18
  store i32 %.val.i.i, ptr %12, align 8, !tbaa !31
  br label %Vec_IntGrow.exit.i.i.i

Vec_IntGrow.exit.i.i.i:                           ; preds = %24, %11
  %26 = phi i32 [ %.val.i.i, %24 ], [ %14, %11 ]
  %27 = icmp sgt i32 %.val.i.i, 0
  br i1 %27, label %Acb_NtkIncTravId.exit15.thread, label %34

Acb_NtkIncTravId.exit15.thread:                   ; preds = %Vec_IntGrow.exit.i.i.i
  %28 = getelementptr inbounds nuw i8, ptr %0, i64 264
  %29 = load ptr, ptr %28, align 8, !tbaa !18
  %wide.trip.count.i.i.i = zext nneg i32 %.val.i.i to i64
  %30 = shl nuw nsw i64 %wide.trip.count.i.i.i, 2
  tail call void @llvm.memset.p0.i64(ptr align 4 %29, i8 0, i64 %30, i1 false), !tbaa !19
  store i32 %.val.i.i, ptr %6, align 4, !tbaa !15
  %31 = getelementptr inbounds nuw i8, ptr %0, i64 96
  %32 = load i32, ptr %31, align 8, !tbaa !73
  %33 = add nsw i32 %32, 2
  br label %Acb_NtkIncTravId.exit24

34:                                               ; preds = %Vec_IntGrow.exit.i.i.i
  store i32 %.val.i.i, ptr %6, align 4, !tbaa !15
  %35 = getelementptr inbounds nuw i8, ptr %0, i64 96
  %36 = load i32, ptr %35, align 8, !tbaa !73
  %37 = add nsw i32 %36, 1
  store i32 %37, ptr %35, align 8, !tbaa !73
  %.val.i.i8 = load i32, ptr %13, align 8, !tbaa !12
  %.not.i.i.i.i9 = icmp slt i32 %26, %.val.i.i8
  br i1 %.not.i.i.i.i9, label %38, label %Vec_IntGrow.exit.i.i.i10

38:                                               ; preds = %34
  %39 = getelementptr inbounds nuw i8, ptr %0, i64 264
  %40 = load ptr, ptr %39, align 8, !tbaa !18
  %.not9.i.i.i.i14 = icmp eq ptr %40, null
  %41 = sext i32 %.val.i.i8 to i64
  %42 = shl nsw i64 %41, 2
  br i1 %.not9.i.i.i.i14, label %45, label %43

43:                                               ; preds = %38
  %44 = tail call ptr @realloc(ptr noundef nonnull %40, i64 noundef %42) #23
  br label %47

45:                                               ; preds = %38
  %46 = tail call noalias ptr @malloc(i64 noundef %42) #24
  br label %47

47:                                               ; preds = %45, %43
  %48 = phi ptr [ %44, %43 ], [ %46, %45 ]
  store ptr %48, ptr %39, align 8, !tbaa !18
  store i32 %.val.i.i8, ptr %12, align 8, !tbaa !31
  br label %Vec_IntGrow.exit.i.i.i10

Vec_IntGrow.exit.i.i.i10:                         ; preds = %47, %34
  %49 = icmp sgt i32 %.val.i.i8, 0
  br i1 %49, label %Acb_NtkIncTravId.exit15, label %54

Acb_NtkIncTravId.exit15:                          ; preds = %Vec_IntGrow.exit.i.i.i10
  %50 = getelementptr inbounds nuw i8, ptr %0, i64 264
  %51 = load ptr, ptr %50, align 8, !tbaa !18
  %wide.trip.count.i.i.i13 = zext nneg i32 %.val.i.i8 to i64
  %52 = shl nuw nsw i64 %wide.trip.count.i.i.i13, 2
  tail call void @llvm.memset.p0.i64(ptr align 4 %51, i8 0, i64 %52, i1 false), !tbaa !19
  store i32 %.val.i.i8, ptr %6, align 4, !tbaa !15
  %.pre = load i32, ptr %35, align 8, !tbaa !73
  %53 = add nsw i32 %.pre, 1
  br label %Acb_NtkIncTravId.exit24

54:                                               ; preds = %Vec_IntGrow.exit.i.i.i10
  store i32 %.val.i.i8, ptr %6, align 4, !tbaa !15
  %.pre32 = load i32, ptr %35, align 8, !tbaa !73
  %55 = add nsw i32 %.pre32, 1
  store i32 %55, ptr %35, align 8, !tbaa !73
  %56 = getelementptr inbounds nuw i8, ptr %0, i64 256
  %57 = getelementptr inbounds nuw i8, ptr %0, i64 112
  %.val.i.i17 = load i32, ptr %57, align 8, !tbaa !12
  %58 = load i32, ptr %56, align 8, !tbaa !31
  %.not.i.i.i.i18 = icmp slt i32 %58, %.val.i.i17
  br i1 %.not.i.i.i.i18, label %59, label %Vec_IntGrow.exit.i.i.i19

59:                                               ; preds = %54
  %60 = getelementptr inbounds nuw i8, ptr %0, i64 264
  %61 = load ptr, ptr %60, align 8, !tbaa !18
  %.not9.i.i.i.i23 = icmp eq ptr %61, null
  %62 = sext i32 %.val.i.i17 to i64
  %63 = shl nsw i64 %62, 2
  br i1 %.not9.i.i.i.i23, label %66, label %64

64:                                               ; preds = %59
  %65 = tail call ptr @realloc(ptr noundef nonnull %61, i64 noundef %63) #23
  br label %68

66:                                               ; preds = %59
  %67 = tail call noalias ptr @malloc(i64 noundef %63) #24
  br label %68

68:                                               ; preds = %66, %64
  %69 = phi ptr [ %65, %64 ], [ %67, %66 ]
  store ptr %69, ptr %60, align 8, !tbaa !18
  store i32 %.val.i.i17, ptr %56, align 8, !tbaa !31
  br label %Vec_IntGrow.exit.i.i.i19

Vec_IntGrow.exit.i.i.i19:                         ; preds = %68, %54
  %70 = icmp sgt i32 %.val.i.i17, 0
  br i1 %70, label %.lr.ph.i.i.i21, label %Acb_NtkCleanObjTravs.exit.i20

.lr.ph.i.i.i21:                                   ; preds = %Vec_IntGrow.exit.i.i.i19
  %71 = getelementptr inbounds nuw i8, ptr %0, i64 264
  %72 = load ptr, ptr %71, align 8, !tbaa !18
  %wide.trip.count.i.i.i22 = zext nneg i32 %.val.i.i17 to i64
  %73 = shl nuw nsw i64 %wide.trip.count.i.i.i22, 2
  tail call void @llvm.memset.p0.i64(ptr align 4 %72, i8 0, i64 %73, i1 false), !tbaa !19
  br label %Acb_NtkCleanObjTravs.exit.i20

Acb_NtkCleanObjTravs.exit.i20:                    ; preds = %.lr.ph.i.i.i21, %Vec_IntGrow.exit.i.i.i19
  store i32 %.val.i.i17, ptr %6, align 4, !tbaa !15
  %.pre28 = load i32, ptr %35, align 8, !tbaa !73
  br label %Acb_NtkIncTravId.exit24

Acb_NtkIncTravId.exit24:                          ; preds = %Acb_NtkIncTravId.exit15, %Acb_NtkIncTravId.exit15.thread29, %Acb_NtkIncTravId.exit15.thread, %Acb_NtkCleanObjTravs.exit.i20
  %74 = phi i32 [ %33, %Acb_NtkIncTravId.exit15.thread ], [ %53, %Acb_NtkIncTravId.exit15 ], [ %.pre28, %Acb_NtkCleanObjTravs.exit.i20 ], [ %10, %Acb_NtkIncTravId.exit15.thread29 ]
  %75 = phi ptr [ %31, %Acb_NtkIncTravId.exit15.thread ], [ %35, %Acb_NtkIncTravId.exit15 ], [ %35, %Acb_NtkCleanObjTravs.exit.i20 ], [ %8, %Acb_NtkIncTravId.exit15.thread29 ]
  %76 = add nsw i32 %74, 1
  store i32 %76, ptr %75, align 8, !tbaa !73
  %77 = tail call i32 @Acb_ObjLabelTfo_rec(ptr noundef nonnull %0, i32 noundef %1, i32 noundef %2, i32 noundef %3, i32 noundef %4)
  ret i32 %77
}